target datalayout = "e-m:e-p270:32:32-p271:32:32-p272:64:64-i64:64-i128:128-f80:128-n8:16:32:64-S128"
target triple = "x86_64-pc-linux-gnu"

%struct.exr_attr_box2i_t = type { %struct.exr_attr_v2i_t, %struct.exr_attr_v2i_t }
%struct.exr_attr_v2i_t = type { i32, i32 }
%struct._priv_exr_part_t = type { i32, i32, %struct.exr_attribute_list, ptr, ptr, ptr, ptr, ptr, ptr, ptr, ptr, ptr, ptr, ptr, ptr, ptr, ptr, %struct.exr_attr_box2i_t, %struct.exr_attr_box2i_t, i32, i32, i32, float, i32, i32, ptr, ptr, ptr, ptr, i64, i16, i16, i32, i64, i64 }
%struct.exr_attribute_list = type { i32, i32, ptr, ptr }
%struct._priv_exr_context_t = type { i8, i8, i8, i8, i8, i8, i8, i8, %struct.exr_attr_string_t, %struct.exr_attr_string_t, ptr, ptr, ptr, ptr, ptr, ptr, ptr, ptr, i32, i32, i32, i32, i32, float, ptr, ptr, ptr, i64, ptr, ptr, i64, i32, i32, i32, i32, %struct._priv_exr_part_t, ptr, ptr, %struct.exr_attribute_list, %union.pthread_mutex_t, i8, i8, [2 x i8], i32 }
%struct.exr_attr_string_t = type { i32, i32, ptr }
%union.pthread_mutex_t = type { %struct.__pthread_mutex_s }
%struct.__pthread_mutex_s = type { i32, i32, i32, i32, i32, i16, i16, %struct.__pthread_internal_list }
%struct.__pthread_internal_list = type { ptr, ptr }
%struct.exr_attribute_t = type { ptr, ptr, i8, i8, [2 x i8], i32, %union.anon }
%union.anon = type { double }
%struct._internal_exr_seq_scratch = type { ptr, i64, i64, i64, ptr, ptr, ptr }

@.str.105 = private unnamed_addr constant [39 x i8] c"Invalid chunk count (%d) for part '%s'\00", align 1
@.str.106 = private unnamed_addr constant [8 x i8] c"<first>\00", align 1
@.str.107 = private unnamed_addr constant [57 x i8] c"Invalid chunk count (%d) for part '%s' (%d), expect (%d)\00", align 1

; Function Attrs: nounwind uwtable
define internal i32 @update_chunk_offsets(ptr noundef %0, ptr noundef %1) #0 {
  %3 = alloca i32, align 4
  %4 = alloca ptr, align 8
  %5 = alloca ptr, align 8
  %6 = alloca ptr, align 8
  %7 = alloca ptr, align 8
  %8 = alloca i32, align 4
  %9 = alloca i32, align 4
  %10 = alloca i32, align 4
  %11 = alloca i32, align 4
  store ptr %0, ptr %4, align 8, !tbaa !3
  store ptr %1, ptr %5, align 8, !tbaa !95
  call void @llvm.lifetime.start.p0(i64 8, ptr %6) #7
  call void @llvm.lifetime.start.p0(i64 8, ptr %7) #7
  call void @llvm.lifetime.start.p0(i64 4, ptr %8) #7
  store i32 0, ptr %8, align 4, !tbaa !10
  %12 = load ptr, ptr %4, align 8, !tbaa !3
  %13 = getelementptr inbounds nuw %struct._priv_exr_context_t, ptr %12, i32 0, i32 37
  %14 = load ptr, ptr %13, align 8, !tbaa !82
  %15 = icmp ne ptr %14, null
  br i1 %15, label %17, label %16

16:                                               ; preds = %2
  store i32 3, ptr %3, align 4
  store i32 1, ptr %9, align 4
  br label %156

17:                                               ; preds = %2
  %18 = load ptr, ptr %5, align 8, !tbaa !95
  %19 = getelementptr inbounds nuw %struct._internal_exr_seq_scratch, ptr %18, i32 0, i32 3
  %20 = load i64, ptr %19, align 8, !tbaa !99
  %21 = load ptr, ptr %5, align 8, !tbaa !95
  %22 = getelementptr inbounds nuw %struct._internal_exr_seq_scratch, ptr %21, i32 0, i32 2
  %23 = load i64, ptr %22, align 8, !tbaa !98
  %24 = sub i64 %20, %23
  %25 = load ptr, ptr %4, align 8, !tbaa !3
  %26 = getelementptr inbounds nuw %struct._priv_exr_context_t, ptr %25, i32 0, i32 37
  %27 = load ptr, ptr %26, align 8, !tbaa !82
  %28 = getelementptr inbounds ptr, ptr %27, i64 0
  %29 = load ptr, ptr %28, align 8, !tbaa !8
  %30 = getelementptr inbounds nuw %struct._priv_exr_part_t, ptr %29, i32 0, i32 33
  store i64 %24, ptr %30, align 8, !tbaa !105
  %31 = load ptr, ptr %4, align 8, !tbaa !3
  %32 = getelementptr inbounds nuw %struct._priv_exr_context_t, ptr %31, i32 0, i32 37
  %33 = load ptr, ptr %32, align 8, !tbaa !82
  %34 = getelementptr inbounds ptr, ptr %33, i64 0
  %35 = load ptr, ptr %34, align 8, !tbaa !8
  store ptr %35, ptr %7, align 8, !tbaa !8
  call void @llvm.lifetime.start.p0(i64 4, ptr %10) #7
  store i32 0, ptr %10, align 4, !tbaa !10
  br label %36

36:                                               ; preds = %150, %17
  %37 = load i32, ptr %10, align 4, !tbaa !10
  %38 = load ptr, ptr %4, align 8, !tbaa !3
  %39 = getelementptr inbounds nuw %struct._priv_exr_context_t, ptr %38, i32 0, i32 34
  %40 = load i32, ptr %39, align 4, !tbaa !90
  %41 = icmp slt i32 %37, %40
  br i1 %41, label %43, label %42

42:                                               ; preds = %36
  store i32 2, ptr %9, align 4
  br label %153

43:                                               ; preds = %36
  call void @llvm.lifetime.start.p0(i64 4, ptr %11) #7
  %44 = load ptr, ptr %4, align 8, !tbaa !3
  %45 = getelementptr inbounds nuw %struct._priv_exr_context_t, ptr %44, i32 0, i32 37
  %46 = load ptr, ptr %45, align 8, !tbaa !82
  %47 = load i32, ptr %10, align 4, !tbaa !10
  %48 = sext i32 %47 to i64
  %49 = getelementptr inbounds ptr, ptr %46, i64 %48
  %50 = load ptr, ptr %49, align 8, !tbaa !8
  store ptr %50, ptr %6, align 8, !tbaa !8
  %51 = load ptr, ptr %4, align 8, !tbaa !3
  %52 = load ptr, ptr %6, align 8, !tbaa !8
  %53 = call i32 @internal_exr_compute_tile_information(ptr noundef %51, ptr noundef %52, i32 noundef 0)
  store i32 %53, ptr %8, align 4, !tbaa !10
  %54 = load i32, ptr %8, align 4, !tbaa !10
  %55 = icmp ne i32 %54, 0
  br i1 %55, label %56, label %57

56:                                               ; preds = %43
  store i32 2, ptr %9, align 4
  br label %147

57:                                               ; preds = %43
  %58 = load ptr, ptr %6, align 8, !tbaa !8
  %59 = call i32 @internal_exr_compute_chunk_offset_size(ptr noundef %58)
  store i32 %59, ptr %11, align 4, !tbaa !10
  %60 = load i32, ptr %11, align 4, !tbaa !10
  %61 = icmp slt i32 %60, 0
  br i1 %61, label %62, label %84

62:                                               ; preds = %57
  %63 = load ptr, ptr %4, align 8, !tbaa !3
  %64 = getelementptr inbounds nuw %struct._priv_exr_context_t, ptr %63, i32 0, i32 14
  %65 = load ptr, ptr %64, align 8, !tbaa !48
  %66 = load ptr, ptr %4, align 8, !tbaa !3
  %67 = load i32, ptr %11, align 4, !tbaa !10
  %68 = load ptr, ptr %6, align 8, !tbaa !8
  %69 = getelementptr inbounds nuw %struct._priv_exr_part_t, ptr %68, i32 0, i32 12
  %70 = load ptr, ptr %69, align 8, !tbaa !91
  %71 = icmp ne ptr %70, null
  br i1 %71, label %72, label %80

72:                                               ; preds = %62
  %73 = load ptr, ptr %6, align 8, !tbaa !8
  %74 = getelementptr inbounds nuw %struct._priv_exr_part_t, ptr %73, i32 0, i32 12
  %75 = load ptr, ptr %74, align 8, !tbaa !91
  %76 = getelementptr inbounds nuw %struct.exr_attribute_t, ptr %75, i32 0, i32 6
  %77 = load ptr, ptr %76, align 8, !tbaa !33
  %78 = getelementptr inbounds nuw %struct.exr_attr_string_t, ptr %77, i32 0, i32 2
  %79 = load ptr, ptr %78, align 8, !tbaa !92
  br label %81

80:                                               ; preds = %62
  br label %81

81:                                               ; preds = %80, %72
  %82 = phi ptr [ %79, %72 ], [ @.str.106, %80 ]
  %83 = call i32 (ptr, i32, ptr, ...) %65(ptr noundef %66, i32 noundef 14, ptr noundef @.str.105, i32 noundef %67, ptr noundef %82)
  store i32 %83, ptr %8, align 4, !tbaa !10
  store i32 2, ptr %9, align 4
  br label %147

84:                                               ; preds = %57
  %85 = load ptr, ptr %6, align 8, !tbaa !8
  %86 = getelementptr inbounds nuw %struct._priv_exr_part_t, ptr %85, i32 0, i32 32
  %87 = load i32, ptr %86, align 4, !tbaa !58
  %88 = icmp slt i32 %87, 0
  br i1 %88, label %89, label %93

89:                                               ; preds = %84
  %90 = load i32, ptr %11, align 4, !tbaa !10
  %91 = load ptr, ptr %6, align 8, !tbaa !8
  %92 = getelementptr inbounds nuw %struct._priv_exr_part_t, ptr %91, i32 0, i32 32
  store i32 %90, ptr %92, align 4, !tbaa !58
  br label %129

93:                                               ; preds = %84
  %94 = load ptr, ptr %6, align 8, !tbaa !8
  %95 = getelementptr inbounds nuw %struct._priv_exr_part_t, ptr %94, i32 0, i32 32
  %96 = load i32, ptr %95, align 4, !tbaa !58
  %97 = load i32, ptr %11, align 4, !tbaa !10
  %98 = icmp ne i32 %96, %97
  br i1 %98, label %99, label %128

99:                                               ; preds = %93
  %100 = load ptr, ptr %4, align 8, !tbaa !3
  %101 = getelementptr inbounds nuw %struct._priv_exr_context_t, ptr %100, i32 0, i32 14
  %102 = load ptr, ptr %101, align 8, !tbaa !48
  %103 = load ptr, ptr %4, align 8, !tbaa !3
  %104 = load ptr, ptr %6, align 8, !tbaa !8
  %105 = getelementptr inbounds nuw %struct._priv_exr_part_t, ptr %104, i32 0, i32 32
  %106 = load i32, ptr %105, align 4, !tbaa !58
  %107 = load ptr, ptr %6, align 8, !tbaa !8
  %108 = getelementptr inbounds nuw %struct._priv_exr_part_t, ptr %107, i32 0, i32 12
  %109 = load ptr, ptr %108, align 8, !tbaa !91
  %110 = icmp ne ptr %109, null
  br i1 %110, label %111, label %119

111:                                              ; preds = %99
  %112 = load ptr, ptr %6, align 8, !tbaa !8
  %113 = getelementptr inbounds nuw %struct._priv_exr_part_t, ptr %112, i32 0, i32 12
  %114 = load ptr, ptr %113, align 8, !tbaa !91
  %115 = getelementptr inbounds nuw %struct.exr_attribute_t, ptr %114, i32 0, i32 6
  %116 = load ptr, ptr %115, align 8, !tbaa !33
  %117 = getelementptr inbounds nuw %struct.exr_attr_string_t, ptr %116, i32 0, i32 2
  %118 = load ptr, ptr %117, align 8, !tbaa !92
  br label %120

119:                                              ; preds = %99
  br label %120

120:                                              ; preds = %119, %111
  %121 = phi ptr [ %118, %111 ], [ @.str.106, %119 ]
  %122 = load i32, ptr %10, align 4, !tbaa !10
  %123 = load i32, ptr %11, align 4, !tbaa !10
  %124 = call i32 (ptr, i32, ptr, ...) %102(ptr noundef %103, i32 noundef 14, ptr noundef @.str.107, i32 noundef %106, ptr noundef %121, i32 noundef %122, i32 noundef %123)
  %125 = load i32, ptr %11, align 4, !tbaa !10
  %126 = load ptr, ptr %6, align 8, !tbaa !8
  %127 = getelementptr inbounds nuw %struct._priv_exr_part_t, ptr %126, i32 0, i32 32
  store i32 %125, ptr %127, align 4, !tbaa !58
  br label %128

128:                                              ; preds = %120, %93
  br label %129

129:                                              ; preds = %128, %89
  %130 = load ptr, ptr %7, align 8, !tbaa !8
  %131 = load ptr, ptr %6, align 8, !tbaa !8
  %132 = icmp ne ptr %130, %131
  br i1 %132, label %133, label %145

133:                                              ; preds = %129
  %134 = load ptr, ptr %7, align 8, !tbaa !8
  %135 = getelementptr inbounds nuw %struct._priv_exr_part_t, ptr %134, i32 0, i32 33
  %136 = load i64, ptr %135, align 8, !tbaa !105
  %137 = load ptr, ptr %7, align 8, !tbaa !8
  %138 = getelementptr inbounds nuw %struct._priv_exr_part_t, ptr %137, i32 0, i32 32
  %139 = load i32, ptr %138, align 4, !tbaa !58
  %140 = sext i32 %139 to i64
  %141 = mul i64 8, %140
  %142 = add i64 %136, %141
  %143 = load ptr, ptr %6, align 8, !tbaa !8
  %144 = getelementptr inbounds nuw %struct._priv_exr_part_t, ptr %143, i32 0, i32 33
  store i64 %142, ptr %144, align 8, !tbaa !105
  br label %145

145:                                              ; preds = %133, %129
  %146 = load ptr, ptr %6, align 8, !tbaa !8
  store ptr %146, ptr %7, align 8, !tbaa !8
  store i32 0, ptr %9, align 4
  br label %147

147:                                              ; preds = %145, %81, %56
  call void @llvm.lifetime.end.p0(i64 4, ptr %11) #7
  %148 = load i32, ptr %9, align 4
  switch i32 %148, label %153 [
    i32 0, label %149
  ]

149:                                              ; preds = %147
  br label %150

150:                                              ; preds = %149
  %151 = load i32, ptr %10, align 4, !tbaa !10
  %152 = add nsw i32 %151, 1
  store i32 %152, ptr %10, align 4, !tbaa !10
  br label %36, !llvm.loop !106

153:                                              ; preds = %147, %42
  call void @llvm.lifetime.end.p0(i64 4, ptr %10) #7
  br label %154

154:                                              ; preds = %153
  %155 = load i32, ptr %8, align 4, !tbaa !10
  store i32 %155, ptr %3, align 4
  store i32 1, ptr %9, align 4
  br label %156

156:                                              ; preds = %154, %16
  call void @llvm.lifetime.end.p0(i64 4, ptr %8) #7
  call void @llvm.lifetime.end.p0(i64 8, ptr %7) #7
  call void @llvm.lifetime.end.p0(i64 8, ptr %6) #7
  %157 = load i32, ptr %3, align 4
  ret i32 %157
}