; Function Attrs: nounwind uwtable
define internal fastcc i32 @update_chunk_offsets(ptr noundef %0, i64 %.16.val, i64 %.24.val) unnamed_addr #0 {
  %2 = getelementptr inbounds nuw i8, ptr %0, i64 472
  %3 = load ptr, ptr %2, align 8, !tbaa !77
  %.not = icmp eq ptr %3, null
  br i1 %.not, label %.loopexit, label %4

4:                                                ; preds = %1
  %5 = sub i64 %.24.val, %.16.val
  %6 = load ptr, ptr %3, align 8, !tbaa !78
  %7 = getelementptr inbounds nuw i8, ptr %6, i64 248
  store i64 %5, ptr %7, align 8, !tbaa !107
  %8 = getelementptr inbounds nuw i8, ptr %0, i64 196
  %9 = load i32, ptr %8, align 4, !tbaa !104
  %10 = icmp sgt i32 %9, 0
  br i1 %10, label %.lr.ph, label %.loopexit

.lr.ph:                                           ; preds = %4
  %11 = getelementptr inbounds nuw i8, ptr %0, i64 72
  br label %12

12:                                               ; preds = %.lr.ph, %60
  %indvars.iv = phi i64 [ 0, %.lr.ph ], [ %indvars.iv.next, %60 ]
  %.0457 = phi ptr [ %6, %.lr.ph ], [ %15, %60 ]
  %13 = load ptr, ptr %2, align 8, !tbaa !77
  %14 = getelementptr inbounds nuw ptr, ptr %13, i64 %indvars.iv
  %15 = load ptr, ptr %14, align 8, !tbaa !78
  %16 = tail call i32 @internal_exr_compute_tile_information(ptr noundef nonnull %0, ptr noundef %15, i32 noundef 0)
  %.not56 = icmp eq i32 %16, 0
  br i1 %.not56, label %17, label %.loopexit

17:                                               ; preds = %12
  %18 = tail call i32 @internal_exr_compute_chunk_offset_size(ptr noundef %15)
  %19 = icmp slt i32 %18, 0
  br i1 %19, label %20, label %32

20:                                               ; preds = %17
  %21 = load ptr, ptr %11, align 8, !tbaa !40
  %22 = getelementptr inbounds nuw i8, ptr %15, i64 104
  %23 = load ptr, ptr %22, align 8, !tbaa !95
  %.not60 = icmp eq ptr %23, null
  br i1 %.not60, label %29, label %24

24:                                               ; preds = %20
  %25 = getelementptr inbounds nuw i8, ptr %23, i64 24
  %26 = load ptr, ptr %25, align 8, !tbaa !29
  %27 = getelementptr inbounds nuw i8, ptr %26, i64 8
  %28 = load ptr, ptr %27, align 8, !tbaa !105
  br label %29

29:                                               ; preds = %20, %24
  %30 = phi ptr [ %28, %24 ], [ @.str.106, %20 ]
  %31 = tail call i32 (ptr, i32, ptr, ...) %21(ptr noundef nonnull %0, i32 noundef 14, ptr noundef nonnull @.str.105, i32 noundef %18, ptr noundef %30) #9
  br label %.loopexit

32:                                               ; preds = %17
  %33 = getelementptr inbounds nuw i8, ptr %15, i64 244
  %34 = load i32, ptr %33, align 4, !tbaa !47
  %35 = icmp slt i32 %34, 0
  br i1 %35, label %.sink.split, label %36

36:                                               ; preds = %32
  %.not57 = icmp eq i32 %34, %18
  br i1 %.not57, label %50, label %37

37:                                               ; preds = %36
  %38 = load ptr, ptr %11, align 8, !tbaa !40
  %39 = getelementptr inbounds nuw i8, ptr %15, i64 104
  %40 = load ptr, ptr %39, align 8, !tbaa !95
  %.not58 = icmp eq ptr %40, null
  br i1 %.not58, label %46, label %41

41:                                               ; preds = %37
  %42 = getelementptr inbounds nuw i8, ptr %40, i64 24
  %43 = load ptr, ptr %42, align 8, !tbaa !29
  %44 = getelementptr inbounds nuw i8, ptr %43, i64 8
  %45 = load ptr, ptr %44, align 8, !tbaa !105
  br label %46

46:                                               ; preds = %37, %41
  %47 = phi ptr [ %45, %41 ], [ @.str.106, %37 ]
  %48 = trunc nuw nsw i64 %indvars.iv to i32
  %49 = tail call i32 (ptr, i32, ptr, ...) %38(ptr noundef nonnull %0, i32 noundef 14, ptr noundef nonnull @.str.107, i32 noundef %34, ptr noundef %47, i32 noundef %48, i32 noundef %18) #9
  br label %.sink.split

.sink.split:                                      ; preds = %32, %46
  store i32 %18, ptr %33, align 4, !tbaa !47
  br label %50

50:                                               ; preds = %.sink.split, %36
  %.not59 = icmp eq ptr %.0457, %15
  br i1 %.not59, label %60, label %51

51:                                               ; preds = %50
  %52 = getelementptr inbounds nuw i8, ptr %.0457, i64 248
  %53 = load i64, ptr %52, align 8, !tbaa !107
  %54 = getelementptr inbounds nuw i8, ptr %.0457, i64 244
  %55 = load i32, ptr %54, align 4, !tbaa !47
  %56 = sext i32 %55 to i64
  %57 = shl nsw i64 %56, 3
  %58 = add i64 %57, %53
  %59 = getelementptr inbounds nuw i8, ptr %15, i64 248
  store i64 %58, ptr %59, align 8, !tbaa !107
  br label %60

60:                                               ; preds = %51, %50
  %indvars.iv.next = add nuw nsw i64 %indvars.iv, 1
  %61 = load i32, ptr %8, align 4, !tbaa !104
  %62 = sext i32 %61 to i64
  %63 = icmp slt i64 %indvars.iv.next, %62
  br i1 %63, label %12, label %.loopexit, !llvm.loop !108

.loopexit:                                        ; preds = %60, %12, %4, %29, %1
  %.0 = phi i32 [ 3, %1 ], [ %31, %29 ], [ 0, %4 ], [ 0, %60 ], [ %16, %12 ]
  ret i32 %.0
}